target datalayout = "e-m:e-p270:32:32-p271:32:32-p272:64:64-i64:64-i128:128-f80:128-n8:16:32:64-S128"
target triple = "x86_64-pc-linux-gnu"

%struct.Curl_easy = type { i32, i64, i64, ptr, %struct.Curl_llist_node, %struct.Curl_llist_node, i32, i32, %struct.Curl_message, %struct.easy_pollset, %struct.Names, ptr, ptr, ptr, %struct.SingleRequest, %struct.UserDefined, ptr, ptr, %struct.Progress, %struct.UrlState, ptr, %struct.PureInfo, %struct.curl_tlssessioninfo }
%struct.Curl_llist_node = type { ptr, ptr, ptr, ptr }
%struct.Curl_message = type { %struct.Curl_llist_node, %struct.CURLMsg }
%struct.CURLMsg = type { i32, ptr, %union.anon }
%union.anon = type { ptr }
%struct.easy_pollset = type { [5 x i32], i32, [5 x i8] }
%struct.Names = type { ptr, i32 }
%struct.SingleRequest = type <{ i64, i64, i64, i64, %struct.curltime, i32, i32, i32, i32, i64, i32, i32, i32, i32, ptr, ptr, %struct.bufq, i64, i64, ptr, ptr, %union.anon.0, ptr, i8, i32, [3 x i8] }>
%struct.curltime = type { i64, i32 }
%struct.bufq = type { ptr, ptr, ptr, ptr, i64, i64, i64, i32 }
%union.anon.0 = type { ptr }
%struct.UserDefined = type <{ ptr, ptr, ptr, ptr, ptr, ptr, i16, [6 x i8], i64, i64, i64, ptr, ptr, i64, i16, i16, [4 x i8], ptr, ptr, ptr, ptr, ptr, ptr, ptr, ptr, ptr, ptr, ptr, ptr, ptr, ptr, ptr, ptr, ptr, ptr, ptr, ptr, ptr, ptr, ptr, i32, i32, i32, i32, i32, [4 x i8], i64, i64, i64, i64, i64, i64, i64, i64, ptr, ptr, %struct.curl_mimepart, ptr, ptr, i64, i8, i8, i8, [5 x i8], %struct.ssl_config_data, %struct.ssl_config_data, ptr, i16, i8, i8, [4 x i8], %struct.ssl_general_config, i32, i32, i32, [4 x i8], ptr, ptr, i8, [7 x i8], i64, i8, i8, i8, i8, i32, ptr, ptr, ptr, i8, i8, [2 x i8], i32, [63 x ptr], [8 x ptr], i32, i32, i32, [4 x i8], ptr, ptr, ptr, ptr, ptr, i8, [3 x i8], i32, i32, i32, i64, %struct.Curl_data_priority, ptr, ptr, i64, ptr, i64, ptr, ptr, ptr, i8, [3 x i8], i32, i8, i8, i64, [6 x i8] }>
%struct.curl_mimepart = type { ptr, ptr, i32, i32, ptr, ptr, ptr, ptr, ptr, ptr, ptr, ptr, ptr, ptr, ptr, i64, %struct.mime_state, ptr, %struct.mime_encoder_state, i64 }
%struct.mime_state = type { i32, ptr, i64 }
%struct.mime_encoder_state = type { i64, i64, i64, [256 x i8] }
%struct.ssl_config_data = type { %struct.ssl_primary_config, i64, ptr, ptr, ptr, ptr, ptr, ptr, ptr, i16 }
%struct.ssl_primary_config = type { ptr, ptr, ptr, ptr, ptr, ptr, ptr, ptr, ptr, ptr, ptr, ptr, i8, i32, i8, i8 }
%struct.ssl_general_config = type { i64, i32 }
%struct.Curl_data_priority = type { ptr, ptr, i32, i8 }
%struct.Progress = type { i64, %struct.pgrs_dir, %struct.pgrs_dir, i64, i64, i32, i32, i64, i64, i64, i64, i64, i64, i64, i64, i64, %struct.curltime, %struct.curltime, %struct.curltime, %struct.curltime, [6 x i64], [6 x %struct.curltime], i32, i8 }
%struct.pgrs_dir = type { i64, i64, i64, %struct.pgrs_measure }
%struct.pgrs_measure = type { %struct.curltime, i64 }
%struct.UrlState = type { %struct.curltime, i64, i64, %struct.dynbuf, ptr, i64, ptr, i32, i32, i32, ptr, i64, i32, i64, i32, ptr, %struct.digestdata, %struct.digestdata, %struct.auth, %struct.auth, %struct.Curl_async, ptr, %struct.curltime, %struct.Curl_tree, %struct.Curl_llist, [15 x %struct.time_node], ptr, ptr, i64, i64, %struct.Curl_data_priority, ptr, ptr, ptr, %struct.urlpieces, ptr, ptr, ptr, ptr, ptr, i64, %struct.dynbuf, %struct.Curl_llist, [2 x %struct.curl_header], ptr, i32, ptr, ptr, %struct.store_netrc, %struct.dynamically_allocated_data, i8, i8, i8, i8, i32 }
%struct.digestdata = type { ptr, ptr, ptr, ptr, ptr, ptr, i32, i8, i8 }
%struct.auth = type { i64, i64, i64, i8 }
%struct.Curl_async = type { ptr, ptr, ptr, ptr, i32, i32, i8 }
%struct.Curl_tree = type { ptr, ptr, ptr, ptr, %struct.curltime, ptr }
%struct.time_node = type { %struct.Curl_llist_node, %struct.curltime, i32 }
%struct.urlpieces = type { ptr, ptr, ptr, ptr, ptr, ptr, ptr, ptr }
%struct.dynbuf = type { ptr, i64, i64, i64 }
%struct.Curl_llist = type { ptr, ptr, ptr, i64 }
%struct.curl_header = type { ptr, ptr, i64, i64, i32, ptr }
%struct.store_netrc = type { %struct.dynbuf, ptr, i8 }
%struct.dynamically_allocated_data = type { ptr, ptr, ptr, ptr, ptr, ptr, ptr, ptr, ptr, ptr, ptr, ptr, ptr }
%struct.PureInfo = type { i32, i32, i32, i64, i64, i64, i64, i64, ptr, ptr, i64, i32, %struct.ip_quadruple, i32, ptr, i32, %struct.curl_certinfo, i32, i8 }
%struct.ip_quadruple = type { [46 x i8], [46 x i8], i32, i32 }
%struct.curl_certinfo = type { i32, ptr }
%struct.curl_tlssessioninfo = type { i32, ptr }
%struct.curl_trc_feat = type { ptr, i32 }
%struct.CookieInfo = type { [63 x %struct.Curl_llist], i64, i32, i32, i8, i8 }

@Curl_ccalloc = external global ptr, align 8
@.str.5 = private unnamed_addr constant [2 x i8] c"-\00", align 1
@stdin = external global ptr, align 8
@.str.6 = private unnamed_addr constant [3 x i8] c"rb\00", align 1
@.str.7 = private unnamed_addr constant [41 x i8] c"WARNING: failed to open cookie file \22%s\22\00", align 1
@.str.8 = private unnamed_addr constant [12 x i8] c"Set-Cookie:\00", align 1

; Function Attrs: nounwind uwtable
define dso_local ptr @Curl_cookie_init(ptr noundef %0, ptr noundef %1, ptr noundef %2, i1 noundef zeroext %3) #0 {
  %5 = alloca ptr, align 8
  %6 = alloca ptr, align 8
  %7 = alloca ptr, align 8
  %8 = alloca ptr, align 8
  %9 = alloca i8, align 1
  %10 = alloca ptr, align 8
  %11 = alloca i32, align 4
  %12 = alloca i32, align 4
  %13 = alloca ptr, align 8
  %14 = alloca %struct.dynbuf, align 8
  %15 = alloca ptr, align 8
  %16 = alloca i8, align 1
  store ptr %0, ptr %6, align 8, !tbaa !4
  store ptr %1, ptr %7, align 8, !tbaa !89
  store ptr %2, ptr %8, align 8, !tbaa !82
  %17 = zext i1 %3 to i8
  store i8 %17, ptr %9, align 1, !tbaa !90
  call void @llvm.lifetime.start.p0(i64 8, ptr %10) #6
  store ptr null, ptr %10, align 8, !tbaa !92
  %18 = load ptr, ptr %8, align 8, !tbaa !82
  %19 = icmp ne ptr %18, null
  br i1 %19, label %45, label %20

20:                                               ; preds = %4
  call void @llvm.lifetime.start.p0(i64 4, ptr %11) #6
  %21 = load ptr, ptr @Curl_ccalloc, align 8, !tbaa !93
  %22 = call ptr %21(i64 noundef 1, i64 noundef 2040)
  store ptr %22, ptr %8, align 8, !tbaa !82
  %23 = load ptr, ptr %8, align 8, !tbaa !82
  %24 = icmp ne ptr %23, null
  br i1 %24, label %26, label %25

25:                                               ; preds = %20
  store ptr null, ptr %5, align 8
  store i32 1, ptr %12, align 4
  br label %42

26:                                               ; preds = %20
  store i32 0, ptr %11, align 4, !tbaa !94
  br label %27

27:                                               ; preds = %36, %26
  %28 = load i32, ptr %11, align 4, !tbaa !94
  %29 = icmp slt i32 %28, 63
  br i1 %29, label %30, label %39

30:                                               ; preds = %27
  %31 = load ptr, ptr %8, align 8, !tbaa !82
  %32 = getelementptr inbounds nuw %struct.CookieInfo, ptr %31, i32 0, i32 0
  %33 = load i32, ptr %11, align 4, !tbaa !94
  %34 = sext i32 %33 to i64
  %35 = getelementptr inbounds [63 x %struct.Curl_llist], ptr %32, i64 0, i64 %34
  call void @Curl_llist_init(ptr noundef %35, ptr noundef null)
  br label %36

36:                                               ; preds = %30
  %37 = load i32, ptr %11, align 4, !tbaa !94
  %38 = add nsw i32 %37, 1
  store i32 %38, ptr %11, align 4, !tbaa !94
  br label %27, !llvm.loop !95

39:                                               ; preds = %27
  %40 = load ptr, ptr %8, align 8, !tbaa !82
  %41 = getelementptr inbounds nuw %struct.CookieInfo, ptr %40, i32 0, i32 1
  store i64 9223372036854775807, ptr %41, align 8, !tbaa !96
  store i32 0, ptr %12, align 4
  br label %42

42:                                               ; preds = %39, %25
  call void @llvm.lifetime.end.p0(i64 4, ptr %11) #6
  %43 = load i32, ptr %12, align 4
  switch i32 %43, label %176 [
    i32 0, label %44
  ]

44:                                               ; preds = %42
  br label %45

45:                                               ; preds = %44, %4
  %46 = load i8, ptr %9, align 1, !tbaa !90, !range !98, !noundef !99
  %47 = trunc i8 %46 to i1
  %48 = load ptr, ptr %8, align 8, !tbaa !82
  %49 = getelementptr inbounds nuw %struct.CookieInfo, ptr %48, i32 0, i32 5
  %50 = zext i1 %47 to i8
  store i8 %50, ptr %49, align 1, !tbaa !100
  %51 = load ptr, ptr %6, align 8, !tbaa !4
  %52 = icmp ne ptr %51, null
  br i1 %52, label %53, label %172

53:                                               ; preds = %45
  call void @llvm.lifetime.start.p0(i64 8, ptr %13) #6
  store ptr null, ptr %13, align 8, !tbaa !92
  %54 = load ptr, ptr %7, align 8, !tbaa !89
  %55 = icmp ne ptr %54, null
  br i1 %55, label %56, label %109

56:                                               ; preds = %53
  %57 = load ptr, ptr %7, align 8, !tbaa !89
  %58 = load i8, ptr %57, align 1, !tbaa !101
  %59 = sext i8 %58 to i32
  %60 = icmp ne i32 %59, 0
  br i1 %60, label %61, label %109

61:                                               ; preds = %56
  %62 = load ptr, ptr %7, align 8, !tbaa !89
  %63 = call i32 @strcmp(ptr noundef %62, ptr noundef @.str.5) #7
  %64 = icmp ne i32 %63, 0
  br i1 %64, label %67, label %65

65:                                               ; preds = %61
  %66 = load ptr, ptr @stdin, align 8, !tbaa !92
  store ptr %66, ptr %13, align 8, !tbaa !92
  br label %108

67:                                               ; preds = %61
  %68 = load ptr, ptr %7, align 8, !tbaa !89
  %69 = call noalias ptr @fopen64(ptr noundef %68, ptr noundef @.str.6)
  store ptr %69, ptr %13, align 8, !tbaa !92
  %70 = load ptr, ptr %13, align 8, !tbaa !92
  %71 = icmp ne ptr %70, null
  br i1 %71, label %105, label %72

72:                                               ; preds = %67
  br label %73

73:                                               ; preds = %72
  %74 = load ptr, ptr %6, align 8, !tbaa !4
  %75 = icmp ne ptr %74, null
  br i1 %75, label %76, label %102

76:                                               ; preds = %73
  %77 = load ptr, ptr %6, align 8, !tbaa !4
  %78 = getelementptr inbounds nuw %struct.Curl_easy, ptr %77, i32 0, i32 15
  %79 = getelementptr inbounds nuw %struct.UserDefined, ptr %78, i32 0, i32 124
  %80 = load i64, ptr %79, align 2
  %81 = lshr i64 %80, 27
  %82 = and i64 %81, 1
  %83 = trunc i64 %82 to i32
  %84 = icmp ne i32 %83, 0
  br i1 %84, label %85, label %102

85:                                               ; preds = %76
  %86 = load ptr, ptr %6, align 8, !tbaa !4
  %87 = getelementptr inbounds nuw %struct.Curl_easy, ptr %86, i32 0, i32 19
  %88 = getelementptr inbounds nuw %struct.UrlState, ptr %87, i32 0, i32 47
  %89 = load ptr, ptr %88, align 8, !tbaa !83
  %90 = icmp ne ptr %89, null
  br i1 %90, label %91, label %99

91:                                               ; preds = %85
  %92 = load ptr, ptr %6, align 8, !tbaa !4
  %93 = getelementptr inbounds nuw %struct.Curl_easy, ptr %92, i32 0, i32 19
  %94 = getelementptr inbounds nuw %struct.UrlState, ptr %93, i32 0, i32 47
  %95 = load ptr, ptr %94, align 8, !tbaa !83
  %96 = getelementptr inbounds nuw %struct.curl_trc_feat, ptr %95, i32 0, i32 1
  %97 = load i32, ptr %96, align 8, !tbaa !84
  %98 = icmp sge i32 %97, 1
  br i1 %98, label %99, label %102

99:                                               ; preds = %91, %85
  %100 = load ptr, ptr %6, align 8, !tbaa !4
  %101 = load ptr, ptr %7, align 8, !tbaa !89
  call void (ptr, ptr, ...) @Curl_infof(ptr noundef %100, ptr noundef @.str.7, ptr noundef %101)
  br label %102

102:                                              ; preds = %99, %91, %76, %73
  br label %103

103:                                              ; preds = %102
  br label %104

104:                                              ; preds = %103
  br label %107

105:                                              ; preds = %67
  %106 = load ptr, ptr %13, align 8, !tbaa !92
  store ptr %106, ptr %10, align 8, !tbaa !92
  br label %107

107:                                              ; preds = %105, %104
  br label %108

108:                                              ; preds = %107, %65
  br label %109

109:                                              ; preds = %108, %56, %53
  %110 = load ptr, ptr %8, align 8, !tbaa !82
  %111 = getelementptr inbounds nuw %struct.CookieInfo, ptr %110, i32 0, i32 4
  store i8 0, ptr %111, align 8, !tbaa !102
  %112 = load ptr, ptr %13, align 8, !tbaa !92
  %113 = icmp ne ptr %112, null
  br i1 %113, label %114, label %165

114:                                              ; preds = %109
  call void @llvm.lifetime.start.p0(i64 32, ptr %14) #6
  call void @Curl_dyn_init(ptr noundef %14, i64 noundef 5000)
  br label %115

115:                                              ; preds = %150, %114
  %116 = load ptr, ptr %13, align 8, !tbaa !92
  %117 = call i32 @Curl_get_line(ptr noundef %14, ptr noundef %116)
  %118 = icmp ne i32 %117, 0
  br i1 %118, label %119, label %157

119:                                              ; preds = %115
  call void @llvm.lifetime.start.p0(i64 8, ptr %15) #6
  %120 = call ptr @Curl_dyn_ptr(ptr noundef %14)
  store ptr %120, ptr %15, align 8, !tbaa !89
  call void @llvm.lifetime.start.p0(i64 1, ptr %16) #6
  store i8 0, ptr %16, align 1, !tbaa !90
  %121 = load ptr, ptr %15, align 8, !tbaa !89
  %122 = call i32 @curl_strnequal(ptr noundef %121, ptr noundef @.str.8, i64 noundef 11)
  %123 = icmp ne i32 %122, 0
  br i1 %123, label %124, label %150

124:                                              ; preds = %119
  %125 = load ptr, ptr %15, align 8, !tbaa !89
  %126 = getelementptr inbounds i8, ptr %125, i64 11
  store ptr %126, ptr %15, align 8, !tbaa !89
  store i8 1, ptr %16, align 1, !tbaa !90
  br label %127

127:                                              ; preds = %146, %124
  %128 = load ptr, ptr %15, align 8, !tbaa !89
  %129 = load i8, ptr %128, align 1, !tbaa !101
  %130 = sext i8 %129 to i32
  %131 = icmp ne i32 %130, 0
  br i1 %131, label %132, label %144

132:                                              ; preds = %127
  %133 = load ptr, ptr %15, align 8, !tbaa !89
  %134 = load i8, ptr %133, align 1, !tbaa !101
  %135 = sext i8 %134 to i32
  %136 = icmp eq i32 %135, 32
  br i1 %136, label %142, label %137

137:                                              ; preds = %132
  %138 = load ptr, ptr %15, align 8, !tbaa !89
  %139 = load i8, ptr %138, align 1, !tbaa !101
  %140 = sext i8 %139 to i32
  %141 = icmp eq i32 %140, 9
  br label %142

142:                                              ; preds = %137, %132
  %143 = phi i1 [ true, %132 ], [ %141, %137 ]
  br label %144

144:                                              ; preds = %142, %127
  %145 = phi i1 [ false, %127 ], [ %143, %142 ]
  br i1 %145, label %146, label %149

146:                                              ; preds = %144
  %147 = load ptr, ptr %15, align 8, !tbaa !89
  %148 = getelementptr inbounds nuw i8, ptr %147, i32 1
  store ptr %148, ptr %15, align 8, !tbaa !89
  br label %127, !llvm.loop !103

149:                                              ; preds = %144
  br label %150

150:                                              ; preds = %149, %119
  %151 = load ptr, ptr %6, align 8, !tbaa !4
  %152 = load ptr, ptr %8, align 8, !tbaa !82
  %153 = load i8, ptr %16, align 1, !tbaa !90, !range !98, !noundef !99
  %154 = trunc i8 %153 to i1
  %155 = load ptr, ptr %15, align 8, !tbaa !89
  %156 = call ptr @Curl_cookie_add(ptr noundef %151, ptr noundef %152, i1 noundef zeroext %154, i1 noundef zeroext true, ptr noundef %155, ptr noundef null, ptr noundef null, i1 noundef zeroext true)
  call void @llvm.lifetime.end.p0(i64 1, ptr %16) #6
  call void @llvm.lifetime.end.p0(i64 8, ptr %15) #6
  br label %115, !llvm.loop !104

157:                                              ; preds = %115
  call void @Curl_dyn_free(ptr noundef %14)
  %158 = load ptr, ptr %8, align 8, !tbaa !82
  call void @remove_expired(ptr noundef %158)
  %159 = load ptr, ptr %10, align 8, !tbaa !92
  %160 = icmp ne ptr %159, null
  br i1 %160, label %161, label %164

161:                                              ; preds = %157
  %162 = load ptr, ptr %10, align 8, !tbaa !92
  %163 = call i32 @fclose(ptr noundef %162)
  br label %164

164:                                              ; preds = %161, %157
  call void @llvm.lifetime.end.p0(i64 32, ptr %14) #6
  br label %165

165:                                              ; preds = %164, %109
  %166 = load ptr, ptr %6, align 8, !tbaa !4
  %167 = getelementptr inbounds nuw %struct.Curl_easy, ptr %166, i32 0, i32 19
  %168 = getelementptr inbounds nuw %struct.UrlState, ptr %167, i32 0, i32 54
  %169 = load i32, ptr %168, align 4
  %170 = and i32 %169, -8193
  %171 = or i32 %170, 8192
  store i32 %171, ptr %168, align 4
  call void @llvm.lifetime.end.p0(i64 8, ptr %13) #6
  br label %172

172:                                              ; preds = %165, %45
  %173 = load ptr, ptr %8, align 8, !tbaa !82
  %174 = getelementptr inbounds nuw %struct.CookieInfo, ptr %173, i32 0, i32 4
  store i8 1, ptr %174, align 8, !tbaa !102
  %175 = load ptr, ptr %8, align 8, !tbaa !82
  store ptr %175, ptr %5, align 8
  store i32 1, ptr %12, align 4
  br label %176

176:                                              ; preds = %172, %42
  call void @llvm.lifetime.end.p0(i64 8, ptr %10) #6
  %177 = load ptr, ptr %5, align 8
  ret ptr %177
}