; Function Attrs: nounwind uwtable
define dso_local ptr @Curl_cookie_init(ptr noundef %0, ptr noundef %1, ptr noundef %2, i1 noundef zeroext %3) local_unnamed_addr #0 {
  %5 = alloca %struct.dynbuf, align 8
  %6 = zext i1 %3 to i8
  %.not = icmp eq ptr %2, null
  br i1 %.not, label %7, label %13

7:                                                ; preds = %4
  %8 = load ptr, ptr @Curl_ccalloc, align 8, !tbaa !86
  %9 = tail call ptr %8(i64 noundef 1, i64 noundef 2040) #13
  %.not60.not = icmp eq ptr %9, null
  br i1 %.not60.not, label %.critedge74, label %.preheader

.preheader:                                       ; preds = %7, %.preheader
  %indvars.iv = phi i64 [ %indvars.iv.next, %.preheader ], [ 0, %7 ]
  %10 = getelementptr inbounds nuw [63 x %struct.Curl_llist], ptr %9, i64 0, i64 %indvars.iv
  tail call void @Curl_llist_init(ptr noundef nonnull %10, ptr noundef null) #13
  %indvars.iv.next = add nuw nsw i64 %indvars.iv, 1
  %exitcond.not = icmp eq i64 %indvars.iv.next, 63
  br i1 %exitcond.not, label %11, label %.preheader, !llvm.loop !87

11:                                               ; preds = %.preheader
  %12 = getelementptr inbounds nuw i8, ptr %9, i64 2016
  store i64 9223372036854775807, ptr %12, align 8, !tbaa !88
  br label %13

13:                                               ; preds = %11, %4
  %.051 = phi ptr [ %2, %4 ], [ %9, %11 ]
  %14 = getelementptr inbounds nuw i8, ptr %.051, i64 2033
  store i8 %6, ptr %14, align 1, !tbaa !91
  %.not61 = icmp eq ptr %0, null
  br i1 %.not61, label %57, label %15

15:                                               ; preds = %13
  %.not62 = icmp eq ptr %1, null
  br i1 %.not62, label %.thread, label %16

16:                                               ; preds = %15
  %17 = load i8, ptr %1, align 1, !tbaa !92
  switch i8 %17, label %.tail.thread [
    i8 0, label %.thread
    i8 45, label %.tail
  ]

.tail:                                            ; preds = %16
  %18 = getelementptr inbounds nuw i8, ptr %1, i64 1
  %19 = load i8, ptr %18, align 1
  %20 = icmp eq i8 %19, 0
  br i1 %20, label %36, label %.tail.thread

.tail.thread:                                     ; preds = %16, %.tail
  %21 = tail call noalias ptr @fopen64(ptr noundef nonnull %1, ptr noundef nonnull @.str.6)
  %.not65 = icmp eq ptr %21, null
  br i1 %.not65, label %23, label %.thread78

.thread78:                                        ; preds = %.tail.thread
  %22 = getelementptr inbounds nuw i8, ptr %.051, i64 2032
  store i8 0, ptr %22, align 8, !tbaa !93
  br label %39

23:                                               ; preds = %.tail.thread
  %24 = getelementptr inbounds nuw i8, ptr %0, i64 2562
  %25 = load i64, ptr %24, align 2
  %26 = and i64 %25, 134217728
  %.not66 = icmp eq i64 %26, 0
  br i1 %.not66, label %.thread, label %27

27:                                               ; preds = %23
  %28 = getelementptr inbounds nuw i8, ptr %0, i64 4712
  %29 = load ptr, ptr %28, align 8, !tbaa !80
  %.not67 = icmp eq ptr %29, null
  br i1 %.not67, label %34, label %30

30:                                               ; preds = %27
  %31 = getelementptr inbounds nuw i8, ptr %29, i64 8
  %32 = load i32, ptr %31, align 8, !tbaa !81
  %33 = icmp sgt i32 %32, 0
  br i1 %33, label %34, label %.thread

34:                                               ; preds = %30, %27
  tail call void (ptr, ptr, ...) @Curl_infof(ptr noundef nonnull %0, ptr noundef nonnull @.str.7, ptr noundef nonnull %1) #13
  br label %.thread

.thread:                                          ; preds = %16, %34, %30, %23, %15
  %35 = getelementptr inbounds nuw i8, ptr %.051, i64 2032
  store i8 0, ptr %35, align 8, !tbaa !93
  br label %53

36:                                               ; preds = %.tail
  %37 = load ptr, ptr @stdin, align 8, !tbaa !94
  %38 = getelementptr inbounds nuw i8, ptr %.051, i64 2032
  store i8 0, ptr %38, align 8, !tbaa !93
  %.not68 = icmp eq ptr %37, null
  br i1 %.not68, label %53, label %39

39:                                               ; preds = %.thread78, %36
  %.04583 = phi ptr [ %21, %.thread78 ], [ %37, %36 ]
  %.04882 = phi ptr [ %21, %.thread78 ], [ null, %36 ]
  call void @llvm.lifetime.start.p0(i64 32, ptr nonnull %5) #13
  call void @Curl_dyn_init(ptr noundef nonnull %5, i64 noundef 5000) #13
  %40 = call i32 @Curl_get_line(ptr noundef nonnull %5, ptr noundef nonnull %.04583) #13
  %.not6985 = icmp eq i32 %40, 0
  br i1 %.not6985, label %._crit_edge, label %.lr.ph

.lr.ph:                                           ; preds = %39, %.critedge
  %41 = call ptr @Curl_dyn_ptr(ptr noundef nonnull %5) #13
  %42 = call i32 @curl_strnequal(ptr noundef %41, ptr noundef nonnull @.str.8, i64 noundef 11) #13
  %.not71 = icmp ne i32 %42, 0
  br i1 %.not71, label %43, label %.critedge

43:                                               ; preds = %.lr.ph
  %44 = getelementptr inbounds nuw i8, ptr %41, i64 11
  br label %45

45:                                               ; preds = %.critedge2, %43
  %.1 = phi ptr [ %44, %43 ], [ %47, %.critedge2 ]
  %46 = load i8, ptr %.1, align 1, !tbaa !92
  switch i8 %46, label %.critedge [
    i8 9, label %.critedge2
    i8 32, label %.critedge2
  ]

.critedge2:                                       ; preds = %45, %45
  %47 = getelementptr inbounds nuw i8, ptr %.1, i64 1
  br label %45, !llvm.loop !95

.critedge:                                        ; preds = %45, %.lr.ph
  %.044 = phi ptr [ %41, %.lr.ph ], [ %.1, %45 ]
  %48 = call ptr @Curl_cookie_add(ptr noundef nonnull %0, ptr noundef nonnull %.051, i1 noundef zeroext %.not71, i1 noundef zeroext true, ptr noundef %.044, ptr noundef null, ptr noundef null, i1 noundef zeroext true)
  %49 = call i32 @Curl_get_line(ptr noundef nonnull %5, ptr noundef nonnull %.04583) #13
  %.not69 = icmp eq i32 %49, 0
  br i1 %.not69, label %._crit_edge, label %.lr.ph, !llvm.loop !96

._crit_edge:                                      ; preds = %.critedge, %39
  call void @Curl_dyn_free(ptr noundef nonnull %5) #13
  call fastcc void @remove_expired(ptr noundef nonnull %.051)
  %.not70 = icmp eq ptr %.04882, null
  br i1 %.not70, label %52, label %50

50:                                               ; preds = %._crit_edge
  %51 = call i32 @fclose(ptr noundef nonnull %.04882)
  br label %52

52:                                               ; preds = %50, %._crit_edge
  call void @llvm.lifetime.end.p0(i64 32, ptr nonnull %5) #13
  br label %53

53:                                               ; preds = %.thread, %52, %36
  %54 = getelementptr inbounds nuw i8, ptr %0, i64 4876
  %55 = load i32, ptr %54, align 4
  %56 = or i32 %55, 8192
  store i32 %56, ptr %54, align 4
  br label %57

57:                                               ; preds = %53, %13
  %58 = getelementptr inbounds nuw i8, ptr %.051, i64 2032
  store i8 1, ptr %58, align 8, !tbaa !93
  br label %.critedge74

.critedge74:                                      ; preds = %7, %57
  %.150 = phi ptr [ %.051, %57 ], [ null, %7 ]
  ret ptr %.150
}